target datalayout = "e-m:e-p270:32:32-p271:32:32-p272:64:64-i64:64-i128:128-f80:128-n8:16:32:64-S128"
target triple = "x86_64-pc-linux-gnu"

%struct.FT_GlyphRec_ = type { ptr, ptr, i32, %struct.FT_Vector_ }
%struct.FT_Vector_ = type { i64, i64 }
%struct.FT_GlyphSlotRec_ = type { ptr, ptr, ptr, i32, %struct.FT_Generic_, %struct.FT_Glyph_Metrics_, i64, i64, %struct.FT_Vector_, i32, %struct.FT_Bitmap_, i32, i32, %struct.FT_Outline_, i32, ptr, ptr, i64, i64, i64, ptr, ptr }
%struct.FT_Generic_ = type { ptr, ptr }
%struct.FT_Glyph_Metrics_ = type { i64, i64, i64, i64, i64, i64, i64, i64 }
%struct.FT_Bitmap_ = type { i32, i32, i32, ptr, i16, i8, i8, ptr }
%struct.FT_Outline_ = type { i16, i16, ptr, ptr, ptr, i32 }
%struct.FT_OutlineGlyphRec_ = type { %struct.FT_GlyphRec_, %struct.FT_Outline_ }

; Function Attrs: nounwind uwtable
define internal i32 @ft_outline_glyph_prepare(ptr noundef %0, ptr noundef %1) #0 {
  %3 = alloca ptr, align 8
  %4 = alloca ptr, align 8
  %5 = alloca ptr, align 8
  store ptr %0, ptr %3, align 8, !tbaa !3
  store ptr %1, ptr %4, align 8, !tbaa !8
  call void @llvm.lifetime.start.p0(i64 8, ptr %5) #6
  %6 = load ptr, ptr %3, align 8, !tbaa !3
  store ptr %6, ptr %5, align 8, !tbaa !58
  %7 = load ptr, ptr %4, align 8, !tbaa !8
  %8 = getelementptr inbounds nuw %struct.FT_GlyphSlotRec_, ptr %7, i32 0, i32 9
  store i32 1869968492, ptr %8, align 8, !tbaa !21
  %9 = load ptr, ptr %4, align 8, !tbaa !8
  %10 = getelementptr inbounds nuw %struct.FT_GlyphSlotRec_, ptr %9, i32 0, i32 13
  %11 = load ptr, ptr %5, align 8, !tbaa !58
  %12 = getelementptr inbounds nuw %struct.FT_OutlineGlyphRec_, ptr %11, i32 0, i32 1
  call void @llvm.memcpy.p0.p0.i64(ptr align 8 %10, ptr align 8 %12, i64 40, i1 false), !tbaa.struct !72
  %13 = load ptr, ptr %4, align 8, !tbaa !8
  %14 = getelementptr inbounds nuw %struct.FT_GlyphSlotRec_, ptr %13, i32 0, i32 13
  %15 = getelementptr inbounds nuw %struct.FT_Outline_, ptr %14, i32 0, i32 5
  %16 = load i32, ptr %15, align 8, !tbaa !74
  %17 = and i32 %16, -2
  store i32 %17, ptr %15, align 8, !tbaa !74
  call void @llvm.lifetime.end.p0(i64 8, ptr %5) #6
  ret i32 0
}