; Function Attrs: mustprogress nofree norecurse nosync nounwind willreturn memory(argmem: readwrite) uwtable
define internal noundef i32 @ft_outline_glyph_prepare(ptr noundef readonly captures(none) %0, ptr noundef captures(none) initializes((144, 148), (200, 240)) %1) #1 {
  %3 = getelementptr inbounds nuw i8, ptr %1, i64 144
  store i32 1869968492, ptr %3, align 8, !tbaa !13
  %4 = getelementptr inbounds nuw i8, ptr %1, i64 200
  %5 = getelementptr inbounds nuw i8, ptr %0, i64 40
  tail call void @llvm.memcpy.p0.p0.i64(ptr noundef nonnull align 8 dereferenceable(40) %4, ptr noundef nonnull align 8 dereferenceable(40) %5, i64 40, i1 false), !tbaa.struct !57
  %6 = getelementptr inbounds nuw i8, ptr %1, i64 232
  %7 = load i32, ptr %6, align 8, !tbaa !60
  %8 = and i32 %7, -2
  store i32 %8, ptr %6, align 8, !tbaa !60
  ret i32 0
}